target datalayout = "e-m:e-p270:32:32-p271:32:32-p272:64:64-i64:64-i128:128-f80:128-n8:16:32:64-S128"
target triple = "x86_64-pc-linux-gnu"

%struct.Vec_Int_t_ = type { i32, i32, ptr }

@.str.2 = private unnamed_addr constant [14 x i8] c"equiv%03d.aig\00", align 1
@.str.3 = private unnamed_addr constant [2 x i8] c"w\00", align 1
@.str.4 = private unnamed_addr constant [34 x i8] c"Cannot open file %s for writing.\0A\00", align 1
@.str.5 = private unnamed_addr constant [57 x i8] c"AIG with %4d disproved equivs is dumped into file \22%s\22.\0A\00", align 1

; Function Attrs: nounwind uwtable
define internal i32 @Vec_IntSize(ptr noundef %0) #0 {
  %2 = alloca ptr, align 8
  store ptr %0, ptr %2, align 8
  %3 = load ptr, ptr %2, align 8
  %4 = getelementptr inbounds %struct.Vec_Int_t_, ptr %3, i32 0, i32 1
  %5 = load i32, ptr %4, align 4
  ret i32 %5
}

; Function Attrs: nounwind uwtable
define void @Ssw_ManDumpEquivMiter(ptr noundef %0, ptr noundef %1, i32 noundef %2, i32 noundef %3) #0 {
  %5 = alloca ptr, align 8
  %6 = alloca ptr, align 8
  %7 = alloca i32, align 4
  %8 = alloca i32, align 4
  %9 = alloca ptr, align 8
  %10 = alloca [16 x i8], align 16
  %11 = alloca ptr, align 8
  store ptr %0, ptr %5, align 8
  store ptr %1, ptr %6, align 8
  store i32 %2, ptr %7, align 4
  store i32 %3, ptr %8, align 4
  %12 = getelementptr inbounds [16 x i8], ptr %10, i64 0, i64 0
  %13 = load i32, ptr %7, align 4
  %14 = call i32 (ptr, ptr, ...) @sprintf(ptr noundef %12, ptr noundef @.str.2, i32 noundef %13) #9
  %15 = getelementptr inbounds [16 x i8], ptr %10, i64 0, i64 0
  %16 = call noalias ptr @fopen(ptr noundef %15, ptr noundef @.str.3)
  store ptr %16, ptr %9, align 8
  %17 = load ptr, ptr %9, align 8
  %18 = icmp eq ptr %17, null
  br i1 %18, label %19, label %21

19:                                               ; preds = %4
  %20 = getelementptr inbounds [16 x i8], ptr %10, i64 0, i64 0
  call void (i32, ptr, ...) @Abc_Print(i32 noundef 1, ptr noundef @.str.4, ptr noundef %20)
  br label %35

21:                                               ; preds = %4
  %22 = load ptr, ptr %9, align 8
  %23 = call i32 @fclose(ptr noundef %22)
  %24 = load ptr, ptr %5, align 8
  %25 = load ptr, ptr %6, align 8
  %26 = load i32, ptr %8, align 4
  %27 = call ptr @Saig_ManCreateEquivMiter(ptr noundef %24, ptr noundef %25, i32 noundef %26)
  store ptr %27, ptr %11, align 8
  %28 = load ptr, ptr %11, align 8
  %29 = getelementptr inbounds [16 x i8], ptr %10, i64 0, i64 0
  call void @Ioa_WriteAiger(ptr noundef %28, ptr noundef %29, i32 noundef 0, i32 noundef 0)
  %30 = load ptr, ptr %11, align 8
  call void @Aig_ManStop(ptr noundef %30)
  %31 = load ptr, ptr %6, align 8
  %32 = call i32 @Vec_IntSize(ptr noundef %31)
  %33 = sdiv i32 %32, 2
  %34 = getelementptr inbounds [16 x i8], ptr %10, i64 0, i64 0
  call void (i32, ptr, ...) @Abc_Print(i32 noundef 1, ptr noundef @.str.5, i32 noundef %33, ptr noundef %34)
  br label %35

35:                                               ; preds = %21, %19
  ret void
}