; Function Attrs: nounwind uwtable
define void @Ssw_ManDumpEquivMiter(ptr noundef %0, ptr noundef %1, i32 noundef %2, i32 noundef %3) local_unnamed_addr #0 {
  %5 = alloca [16 x i8], align 16
  %6 = call i32 (ptr, ptr, ...) @sprintf(ptr noundef nonnull dereferenceable(1) %5, ptr noundef nonnull dereferenceable(1) @.str.2, i32 noundef %2) #14
  %7 = call noalias ptr @fopen(ptr noundef nonnull %5, ptr noundef nonnull @.str.3)
  %8 = icmp eq ptr %7, null
  br i1 %8, label %9, label %10

9:                                                ; preds = %4
  call void (i32, ptr, ...) @Abc_Print(i32 poison, ptr noundef nonnull @.str.4, ptr noundef nonnull %5)
  br label %15

10:                                               ; preds = %4
  %11 = tail call i32 @fclose(ptr noundef nonnull %7)
  %12 = tail call ptr @Saig_ManCreateEquivMiter(ptr noundef %0, ptr noundef %1, i32 noundef %3) #14
  call void @Ioa_WriteAiger(ptr noundef %12, ptr noundef nonnull %5, i32 noundef 0, i32 noundef 0) #14
  call void @Aig_ManStop(ptr noundef %12) #14
  %13 = getelementptr i8, ptr %1, i64 4
  %.val = load i32, ptr %13, align 4
  %14 = sdiv i32 %.val, 2
  call void (i32, ptr, ...) @Abc_Print(i32 poison, ptr noundef nonnull @.str.5, i32 noundef %14, ptr noundef nonnull %5)
  br label %15

15:                                               ; preds = %10, %9
  ret void
}